; Function Attrs: nounwind uwtable
define i32 @EVP_RAND_CTX_get_params(ptr noundef readonly captures(none) %0, ptr noundef %1) local_unnamed_addr #0 {
  %3 = load ptr, ptr %0, align 8, !tbaa !3
  %4 = getelementptr inbounds nuw i8, ptr %3, i64 112
  %5 = load ptr, ptr %4, align 8, !tbaa !37
  %.not.i = icmp eq ptr %5, null
  br i1 %.not.i, label %evp_rand_lock.exit.thread, label %evp_rand_lock.exit

evp_rand_lock.exit:                               ; preds = %2
  %6 = getelementptr inbounds nuw i8, ptr %0, i64 8
  %7 = load ptr, ptr %6, align 8, !tbaa !17
  %8 = tail call i32 %5(ptr noundef %7) #8
  %.not = icmp eq i32 %8, 0
  br i1 %.not, label %evp_rand_unlock.exit, label %evp_rand_lock.exit.evp_rand_lock.exit.thread_crit_edge

evp_rand_lock.exit.evp_rand_lock.exit.thread_crit_edge: ; preds = %evp_rand_lock.exit
  %.val.pre = load ptr, ptr %0, align 8, !tbaa !3
  br label %evp_rand_lock.exit.thread

evp_rand_lock.exit.thread:                        ; preds = %evp_rand_lock.exit.evp_rand_lock.exit.thread_crit_edge, %2
  %.val = phi ptr [ %.val.pre, %evp_rand_lock.exit.evp_rand_lock.exit.thread_crit_edge ], [ %3, %2 ]
  %9 = getelementptr i8, ptr %0, i64 8
  %.val5 = load ptr, ptr %9, align 8, !tbaa !17
  %10 = getelementptr i8, ptr %.val, i64 160
  %.val.val = load ptr, ptr %10, align 8, !tbaa !43
  %11 = tail call i32 %.val.val(ptr noundef %.val5, ptr noundef %1) #8
  %12 = load ptr, ptr %0, align 8, !tbaa !3
  %13 = getelementptr inbounds nuw i8, ptr %12, i64 120
  %14 = load ptr, ptr %13, align 8, !tbaa !38
  %.not.i6 = icmp eq ptr %14, null
  br i1 %.not.i6, label %evp_rand_unlock.exit, label %15

15:                                               ; preds = %evp_rand_lock.exit.thread
  %16 = load ptr, ptr %9, align 8, !tbaa !17
  tail call void %14(ptr noundef %16) #8
  br label %evp_rand_unlock.exit

evp_rand_unlock.exit:                             ; preds = %15, %evp_rand_lock.exit.thread, %evp_rand_lock.exit
  %.0 = phi i32 [ 0, %evp_rand_lock.exit ], [ %11, %evp_rand_lock.exit.thread ], [ %11, %15 ]
  ret i32 %.0
}